target datalayout = "e-m:e-p270:32:32-p271:32:32-p272:64:64-i64:64-i128:128-f80:128-n8:16:32:64-S128"
target triple = "x86_64-pc-linux-gnu"

%struct._e_addr_resolve = type { i32, i32, i32, i32, i32, i32, i32, i32 }

@.str.4 = private unnamed_addr constant [6 x i8] c" \E2\86\92 \00", align 1
@gbl_resolv_flags = external global %struct._e_addr_resolve, align 4
@.str.18 = private unnamed_addr constant [7 x i8] c"%s(%u)\00", align 1
@.str.19 = private unnamed_addr constant [3 x i8] c"%u\00", align 1

; Function Attrs: nounwind uwtable
define internal void @col_snprint_port(ptr noundef %0, i64 noundef %1, i32 noundef %2, i16 noundef zeroext %3) #0 {
  %5 = alloca ptr, align 8
  %6 = alloca i64, align 8
  %7 = alloca i32, align 4
  %8 = alloca i16, align 2
  %9 = alloca ptr, align 8
  store ptr %0, ptr %5, align 8
  store i64 %1, ptr %6, align 8
  store i32 %2, ptr %7, align 4
  store i16 %3, ptr %8, align 2
  %10 = getelementptr inbounds %struct._e_addr_resolve, ptr @gbl_resolv_flags, i32 0, i32 2
  %11 = load i32, ptr %10, align 4
  %12 = icmp ne i32 %11, 0
  br i1 %12, label %13, label %26

13:                                               ; preds = %4
  %14 = load i32, ptr %7, align 4
  %15 = load i16, ptr %8, align 2
  %16 = zext i16 %15 to i32
  %17 = call ptr @try_serv_name_lookup(i32 noundef %14, i32 noundef %16)
  store ptr %17, ptr %9, align 8
  %18 = icmp ne ptr %17, null
  br i1 %18, label %19, label %26

19:                                               ; preds = %13
  %20 = load ptr, ptr %5, align 8
  %21 = load i64, ptr %6, align 8
  %22 = load ptr, ptr %9, align 8
  %23 = load i16, ptr %8, align 2
  %24 = zext i16 %23 to i32
  %25 = call i32 (ptr, i64, ptr, ...) @snprintf(ptr noundef %20, i64 noundef %21, ptr noundef @.str.18, ptr noundef %22, i32 noundef %24) #7
  br label %32

26:                                               ; preds = %13, %4
  %27 = load ptr, ptr %5, align 8
  %28 = load i64, ptr %6, align 8
  %29 = load i16, ptr %8, align 2
  %30 = zext i16 %29 to i32
  %31 = call i32 (ptr, i64, ptr, ...) @snprintf(ptr noundef %27, i64 noundef %28, ptr noundef @.str.19, i32 noundef %30) #7
  br label %32

32:                                               ; preds = %26, %19
  ret void
}

; Function Attrs: nounwind uwtable
define void @col_append_ports(ptr noundef %0, i32 noundef %1, i32 noundef %2, i16 noundef zeroext %3, i16 noundef zeroext %4) #0 {
  %6 = alloca ptr, align 8
  %7 = alloca i32, align 4
  %8 = alloca i32, align 4
  %9 = alloca i16, align 2
  %10 = alloca i16, align 2
  %11 = alloca [32 x i8], align 16
  %12 = alloca [32 x i8], align 16
  store ptr %0, ptr %6, align 8
  store i32 %1, ptr %7, align 4
  store i32 %2, ptr %8, align 4
  store i16 %3, ptr %9, align 2
  store i16 %4, ptr %10, align 2
  %13 = getelementptr inbounds [32 x i8], ptr %11, i64 0, i64 0
  %14 = load i32, ptr %8, align 4
  %15 = load i16, ptr %9, align 2
  call void @col_snprint_port(ptr noundef %13, i64 noundef 32, i32 noundef %14, i16 noundef zeroext %15)
  %16 = getelementptr inbounds [32 x i8], ptr %12, i64 0, i64 0
  %17 = load i32, ptr %8, align 4
  %18 = load i16, ptr %10, align 2
  call void @col_snprint_port(ptr noundef %16, i64 noundef 32, i32 noundef %17, i16 noundef zeroext %18)
  %19 = load ptr, ptr %6, align 8
  %20 = load i32, ptr %7, align 4
  %21 = getelementptr inbounds [32 x i8], ptr %11, i64 0, i64 0
  %22 = getelementptr inbounds [32 x i8], ptr %12, i64 0, i64 0
  %23 = inttoptr i64 -1 to ptr
  call void (ptr, i32, ptr, ...) @col_append_lstr(ptr noundef %19, i32 noundef %20, ptr noundef %21, ptr noundef @.str.4, ptr noundef %22, ptr noundef %23)
  ret void
}