; Function Attrs: nounwind uwtable
define void @col_append_ports(ptr noundef %0, i32 noundef %1, i32 noundef %2, i16 noundef zeroext %3, i16 noundef zeroext %4) local_unnamed_addr #0 {
  %6 = alloca [32 x i8], align 16
  %7 = alloca [32 x i8], align 16
  %8 = load i32, ptr getelementptr inbounds nuw (i8, ptr @gbl_resolv_flags, i64 8), align 4
  %.not.i = icmp eq i32 %8, 0
  %.pre.i = zext i16 %3 to i32
  br i1 %.not.i, label %._crit_edge.i, label %9

9:                                                ; preds = %5
  %10 = tail call ptr @try_serv_name_lookup(i32 noundef %2, i32 noundef %.pre.i) #16
  %.not8.i = icmp eq ptr %10, null
  br i1 %.not8.i, label %._crit_edge.i, label %11

11:                                               ; preds = %9
  %12 = call i32 (ptr, i64, ptr, ...) @snprintf(ptr noundef nonnull dereferenceable(1) %6, i64 noundef 32, ptr noundef nonnull @.str.18, ptr noundef nonnull %10, i32 noundef %.pre.i) #16
  br label %col_snprint_port.exit

._crit_edge.i:                                    ; preds = %9, %5
  %13 = call i32 (ptr, i64, ptr, ...) @snprintf(ptr noundef nonnull dereferenceable(1) %6, i64 noundef 32, ptr noundef nonnull @.str.19, i32 noundef %.pre.i) #16
  br label %col_snprint_port.exit

col_snprint_port.exit:                            ; preds = %11, %._crit_edge.i
  %14 = load i32, ptr getelementptr inbounds nuw (i8, ptr @gbl_resolv_flags, i64 8), align 4
  %.not.i5 = icmp eq i32 %14, 0
  %.pre.i6 = zext i16 %4 to i32
  br i1 %.not.i5, label %._crit_edge.i8, label %15

15:                                               ; preds = %col_snprint_port.exit
  %16 = tail call ptr @try_serv_name_lookup(i32 noundef %2, i32 noundef %.pre.i6) #16
  %.not8.i7 = icmp eq ptr %16, null
  br i1 %.not8.i7, label %._crit_edge.i8, label %17

17:                                               ; preds = %15
  %18 = call i32 (ptr, i64, ptr, ...) @snprintf(ptr noundef nonnull dereferenceable(1) %7, i64 noundef 32, ptr noundef nonnull @.str.18, ptr noundef nonnull %16, i32 noundef %.pre.i6) #16
  br label %col_snprint_port.exit9

._crit_edge.i8:                                   ; preds = %15, %col_snprint_port.exit
  %19 = call i32 (ptr, i64, ptr, ...) @snprintf(ptr noundef nonnull dereferenceable(1) %7, i64 noundef 32, ptr noundef nonnull @.str.19, i32 noundef %.pre.i6) #16
  br label %col_snprint_port.exit9

col_snprint_port.exit9:                           ; preds = %17, %._crit_edge.i8
  call void (ptr, i32, ptr, ...) @col_append_lstr(ptr noundef %0, i32 noundef %1, ptr noundef nonnull %6, ptr noundef nonnull @.str.4, ptr noundef nonnull %7, ptr noundef nonnull inttoptr (i64 -1 to ptr))
  ret void
}